
build/APP.elf:     file format elf32-littleriscv

Sections:
Idx Name          Size      VMA       LMA       File off  Algn
  0 .text         00001530  00000000  00000000  00001000  2**2
                  CONTENTS, ALLOC, LOAD, READONLY, CODE
  1 .rodata       00000000  00001530  00001530  00002530  2**0
                  CONTENTS, ALLOC, LOAD, DATA
  2 .data         00000000  00000000  00001530  00002530  2**0
                  CONTENTS, ALLOC, LOAD, DATA
  3 .bss          00000410  00000000  00000000  00003000  2**2
                  ALLOC
  4 .sbss         0000000c  00000410  00000410  00003410  2**2
                  ALLOC
  5 ._user_heap_stack 00000604  0000041c  0000041c  0000341c  2**0
                  ALLOC
  6 .comment      00000034  00000000  00000000  00002530  2**0
                  CONTENTS, READONLY

Disassembly of section .text:

00000000 <_start>:
       0:	00080137          	lui	sp,0x80
       4:	ffc10113          	addi	sp,sp,-4 # 7fffc <_estack>
       8:	00c000ef          	jal	ra,14 <main>
       c:	0040006f          	j	10 <_exit>

00000010 <_exit>:
      10:	0000006f          	j	10 <_exit>

00000014 <main>:
      14:	fe010113          	addi	sp,sp,-32
      18:	00112e23          	sw	ra,28(sp)
      1c:	00812c23          	sw	s0,24(sp)
      20:	02010413          	addi	s0,sp,32
      24:	01e00613          	li	a2,30
      28:	04b00593          	li	a1,75
      2c:	06400513          	li	a0,100
      30:	418010ef          	jal	ra,1448 <circleBres>
      34:	f0f0f7b7          	lui	a5,0xf0f0f
      38:	0f078593          	addi	a1,a5,240 # f0f0f0f0 <_estack+0xf0e8f0f4>
      3c:	00000513          	li	a0,0
      40:	07c000ef          	jal	ra,bc <vram_write_32b>
      44:	fe042623          	sw	zero,-20(s0)
      48:	0200006f          	j	68 <main+0x54>
      4c:	fec42603          	lw	a2,-20(s0)
      50:	04b00593          	li	a1,75
      54:	06400513          	li	a0,100
      58:	3f0010ef          	jal	ra,1448 <circleBres>
      5c:	fec42783          	lw	a5,-20(s0)
      60:	00278793          	addi	a5,a5,2
      64:	fef42623          	sw	a5,-20(s0)
      68:	fec42703          	lw	a4,-20(s0)
      6c:	00900793          	li	a5,9
      70:	fce7dee3          	bge	a5,a4,4c <main+0x38>
      74:	0000006f          	j	74 <main+0x60>

00000078 <vram_write_8b>:
      78:	fd010113          	addi	sp,sp,-48
      7c:	02812623          	sw	s0,44(sp)
      80:	03010413          	addi	s0,sp,48
      84:	fca42e23          	sw	a0,-36(s0)
      88:	00058793          	mv	a5,a1
      8c:	fcf40da3          	sb	a5,-37(s0)
      90:	fdc42703          	lw	a4,-36(s0)
      94:	400007b7          	lui	a5,0x40000
      98:	00f707b3          	add	a5,a4,a5
      9c:	fef42623          	sw	a5,-20(s0)
      a0:	fec42783          	lw	a5,-20(s0)
      a4:	fdb44703          	lbu	a4,-37(s0)
      a8:	00e78023          	sb	a4,0(a5) # 40000000 <_estack+0x3ff80004>
      ac:	00000013          	nop
      b0:	02c12403          	lw	s0,44(sp)
      b4:	03010113          	addi	sp,sp,48
      b8:	00008067          	ret

000000bc <vram_write_32b>:
      bc:	fd010113          	addi	sp,sp,-48
      c0:	02812623          	sw	s0,44(sp)
      c4:	03010413          	addi	s0,sp,48
      c8:	fca42e23          	sw	a0,-36(s0)
      cc:	fcb42c23          	sw	a1,-40(s0)
      d0:	fdc42703          	lw	a4,-36(s0)
      d4:	400007b7          	lui	a5,0x40000
      d8:	00f707b3          	add	a5,a4,a5
      dc:	fef42623          	sw	a5,-20(s0)
      e0:	fec42783          	lw	a5,-20(s0)
      e4:	fd842703          	lw	a4,-40(s0)
      e8:	00e7a023          	sw	a4,0(a5) # 40000000 <_estack+0x3ff80004>
      ec:	00000013          	nop
      f0:	02c12403          	lw	s0,44(sp)
      f4:	03010113          	addi	sp,sp,48
      f8:	00008067          	ret

000000fc <delay>:
      fc:	fe010113          	addi	sp,sp,-32
     100:	00812e23          	sw	s0,28(sp)
     104:	02010413          	addi	s0,sp,32
     108:	fe042623          	sw	zero,-20(s0)
     10c:	0100006f          	j	11c <delay+0x20>
     110:	fec42783          	lw	a5,-20(s0)
     114:	00178793          	addi	a5,a5,1
     118:	fef42623          	sw	a5,-20(s0)
     11c:	fec42703          	lw	a4,-20(s0)
     120:	000027b7          	lui	a5,0x2
     124:	70f78793          	addi	a5,a5,1807 # 270f <_etext+0x11df>
     128:	fee7d4e3          	bge	a5,a4,110 <delay+0x14>
     12c:	00000013          	nop
     130:	00000013          	nop
     134:	01c12403          	lw	s0,28(sp)
     138:	02010113          	addi	sp,sp,32
     13c:	00008067          	ret

00000140 <VGA_clear>:
     140:	fe010113          	addi	sp,sp,-32
     144:	00112e23          	sw	ra,28(sp)
     148:	00812c23          	sw	s0,24(sp)
     14c:	02010413          	addi	s0,sp,32
     150:	fe042623          	sw	zero,-20(s0)
     154:	0200006f          	j	174 <VGA_clear+0x34>
     158:	fec42783          	lw	a5,-20(s0)
     15c:	00000593          	li	a1,0
     160:	00078513          	mv	a0,a5
     164:	f59ff0ef          	jal	ra,bc <vram_write_32b>
     168:	fec42783          	lw	a5,-20(s0)
     16c:	00478793          	addi	a5,a5,4
     170:	fef42623          	sw	a5,-20(s0)
     174:	fec42703          	lw	a4,-20(s0)
     178:	000017b7          	lui	a5,0x1
     17c:	35578793          	addi	a5,a5,853 # 1355 <drawCircle+0x61>
     180:	fce7dce3          	bge	a5,a4,158 <VGA_clear+0x18>
     184:	00000013          	nop
     188:	00000013          	nop
     18c:	01c12083          	lw	ra,28(sp)
     190:	01812403          	lw	s0,24(sp)
     194:	02010113          	addi	sp,sp,32
     198:	00008067          	ret

0000019c <VGA_power>:
     19c:	fe010113          	addi	sp,sp,-32
     1a0:	00812e23          	sw	s0,28(sp)
     1a4:	02010413          	addi	s0,sp,32
     1a8:	00050793          	mv	a5,a0
     1ac:	fef407a3          	sb	a5,-17(s0)
     1b0:	fef44783          	lbu	a5,-17(s0)
     1b4:	00078863          	beqz	a5,1c4 <VGA_power+0x28>
     1b8:	fef44703          	lbu	a4,-17(s0)
     1bc:	00100793          	li	a5,1
     1c0:	00f71863          	bne	a4,a5,1d0 <VGA_power+0x34>
     1c4:	800007b7          	lui	a5,0x80000
     1c8:	fef44703          	lbu	a4,-17(s0)
     1cc:	00e780a3          	sb	a4,1(a5) # 80000001 <_estack+0x7ff80005>
     1d0:	00000013          	nop
     1d4:	01c12403          	lw	s0,28(sp)
     1d8:	02010113          	addi	sp,sp,32
     1dc:	00008067          	ret

000001e0 <writePixel>:
     1e0:	fd010113          	addi	sp,sp,-48
     1e4:	02812623          	sw	s0,44(sp)
     1e8:	03010413          	addi	s0,sp,48
     1ec:	fca42e23          	sw	a0,-36(s0)
     1f0:	fcb42c23          	sw	a1,-40(s0)
     1f4:	fdc42783          	lw	a5,-36(s0)
     1f8:	41f7d713          	srai	a4,a5,0x1f
     1fc:	01f77713          	andi	a4,a4,31
     200:	00f707b3          	add	a5,a4,a5
     204:	4057d793          	srai	a5,a5,0x5
     208:	fef42623          	sw	a5,-20(s0)
     20c:	fec42783          	lw	a5,-20(s0)
     210:	00279713          	slli	a4,a5,0x2
     214:	400007b7          	lui	a5,0x40000
     218:	00f70733          	add	a4,a4,a5
     21c:	fd842783          	lw	a5,-40(s0)
     220:	00379793          	slli	a5,a5,0x3
     224:	00279793          	slli	a5,a5,0x2
     228:	00f707b3          	add	a5,a4,a5
     22c:	fef42423          	sw	a5,-24(s0)
     230:	fe842783          	lw	a5,-24(s0)
     234:	0007a783          	lw	a5,0(a5) # 40000000 <_estack+0x3ff80004>
     238:	fef42223          	sw	a5,-28(s0)
     23c:	fdc42703          	lw	a4,-36(s0)
     240:	41f75793          	srai	a5,a4,0x1f
     244:	01b7d793          	srli	a5,a5,0x1b
     248:	00f70733          	add	a4,a4,a5
     24c:	01f77713          	andi	a4,a4,31
     250:	40f707b3          	sub	a5,a4,a5
     254:	00078713          	mv	a4,a5
     258:	00100793          	li	a5,1
     25c:	00e797b3          	sll	a5,a5,a4
     260:	fe442703          	lw	a4,-28(s0)
     264:	00f767b3          	or	a5,a4,a5
     268:	fef42223          	sw	a5,-28(s0)
     26c:	fe842783          	lw	a5,-24(s0)
     270:	fe442703          	lw	a4,-28(s0)
     274:	00e7a023          	sw	a4,0(a5)
     278:	00000013          	nop
     27c:	02c12403          	lw	s0,44(sp)
     280:	03010113          	addi	sp,sp,48
     284:	00008067          	ret

00000288 <clearPixel>:
     288:	fd010113          	addi	sp,sp,-48
     28c:	02812623          	sw	s0,44(sp)
     290:	03010413          	addi	s0,sp,48
     294:	fca42e23          	sw	a0,-36(s0)
     298:	fcb42c23          	sw	a1,-40(s0)
     29c:	fdc42783          	lw	a5,-36(s0)
     2a0:	41f7d713          	srai	a4,a5,0x1f
     2a4:	01f77713          	andi	a4,a4,31
     2a8:	00f707b3          	add	a5,a4,a5
     2ac:	4057d793          	srai	a5,a5,0x5
     2b0:	fef42623          	sw	a5,-20(s0)
     2b4:	fec42783          	lw	a5,-20(s0)
     2b8:	00279713          	slli	a4,a5,0x2
     2bc:	400007b7          	lui	a5,0x40000
     2c0:	00f70733          	add	a4,a4,a5
     2c4:	fd842783          	lw	a5,-40(s0)
     2c8:	00379793          	slli	a5,a5,0x3
     2cc:	00279793          	slli	a5,a5,0x2
     2d0:	00f707b3          	add	a5,a4,a5
     2d4:	fef42423          	sw	a5,-24(s0)
     2d8:	fe842783          	lw	a5,-24(s0)
     2dc:	0007a783          	lw	a5,0(a5) # 40000000 <_estack+0x3ff80004>
     2e0:	fef42223          	sw	a5,-28(s0)
     2e4:	fdc42703          	lw	a4,-36(s0)
     2e8:	41f75793          	srai	a5,a4,0x1f
     2ec:	01b7d793          	srli	a5,a5,0x1b
     2f0:	00f70733          	add	a4,a4,a5
     2f4:	01f77713          	andi	a4,a4,31
     2f8:	40f707b3          	sub	a5,a4,a5
     2fc:	00078713          	mv	a4,a5
     300:	00100793          	li	a5,1
     304:	00e797b3          	sll	a5,a5,a4
     308:	fff7c793          	not	a5,a5
     30c:	fe442703          	lw	a4,-28(s0)
     310:	00f777b3          	and	a5,a4,a5
     314:	fef42223          	sw	a5,-28(s0)
     318:	fe842783          	lw	a5,-24(s0)
     31c:	fe442703          	lw	a4,-28(s0)
     320:	00e7a023          	sw	a4,0(a5)
     324:	00000013          	nop
     328:	02c12403          	lw	s0,44(sp)
     32c:	03010113          	addi	sp,sp,48
     330:	00008067          	ret

00000334 <writeChar>:
     334:	fd010113          	addi	sp,sp,-48
     338:	02812623          	sw	s0,44(sp)
     33c:	03010413          	addi	s0,sp,48
     340:	fca42e23          	sw	a0,-36(s0)
     344:	fcb42c23          	sw	a1,-40(s0)
     348:	fcc42a23          	sw	a2,-44(s0)
     34c:	fdc42783          	lw	a5,-36(s0)
     350:	fef42423          	sw	a5,-24(s0)
     354:	fe842703          	lw	a4,-24(s0)
     358:	400007b7          	lui	a5,0x40000
     35c:	00f70733          	add	a4,a4,a5
     360:	fd842783          	lw	a5,-40(s0)
     364:	00879793          	slli	a5,a5,0x8
     368:	00f707b3          	add	a5,a4,a5
     36c:	fef42223          	sw	a5,-28(s0)
     370:	fe042623          	sw	zero,-20(s0)
     374:	03c0006f          	j	3b0 <writeChar+0x7c>
     378:	fec42783          	lw	a5,-20(s0)
     37c:	00579713          	slli	a4,a5,0x5
     380:	fe442783          	lw	a5,-28(s0)
     384:	00f707b3          	add	a5,a4,a5
     388:	fef42023          	sw	a5,-32(s0)
     38c:	fec42783          	lw	a5,-20(s0)
     390:	fd442703          	lw	a4,-44(s0)
     394:	00f707b3          	add	a5,a4,a5
     398:	0007c703          	lbu	a4,0(a5) # 40000000 <_estack+0x3ff80004>
     39c:	fe042783          	lw	a5,-32(s0)
     3a0:	00e78023          	sb	a4,0(a5)
     3a4:	fec42783          	lw	a5,-20(s0)
     3a8:	00178793          	addi	a5,a5,1
     3ac:	fef42623          	sw	a5,-20(s0)
     3b0:	fec42703          	lw	a4,-20(s0)
     3b4:	00700793          	li	a5,7
     3b8:	fce7d0e3          	bge	a5,a4,378 <writeChar+0x44>
     3bc:	00000013          	nop
     3c0:	00000013          	nop
     3c4:	02c12403          	lw	s0,44(sp)
     3c8:	03010113          	addi	sp,sp,48
     3cc:	00008067          	ret

000003d0 <ascii_table_init>:
     3d0:	ff010113          	addi	sp,sp,-16
     3d4:	00812623          	sw	s0,12(sp)
     3d8:	01010413          	addi	s0,sp,16
     3dc:	00000793          	li	a5,0
     3e0:	10078023          	sb	zero,256(a5)
     3e4:	00000793          	li	a5,0
     3e8:	100780a3          	sb	zero,257(a5)
     3ec:	00000793          	li	a5,0
     3f0:	10078123          	sb	zero,258(a5)
     3f4:	00000793          	li	a5,0
     3f8:	100781a3          	sb	zero,259(a5)
     3fc:	00000793          	li	a5,0
     400:	10078223          	sb	zero,260(a5)
     404:	00000793          	li	a5,0
     408:	100782a3          	sb	zero,261(a5)
     40c:	00000793          	li	a5,0
     410:	10078323          	sb	zero,262(a5)
     414:	00000793          	li	a5,0
     418:	100783a3          	sb	zero,263(a5)
     41c:	00000793          	li	a5,0
     420:	1e078823          	sb	zero,496(a5)
     424:	00000793          	li	a5,0
     428:	1e0788a3          	sb	zero,497(a5)
     42c:	00000793          	li	a5,0
     430:	1e078923          	sb	zero,498(a5)
     434:	00000793          	li	a5,0
     438:	00200713          	li	a4,2
     43c:	1ee789a3          	sb	a4,499(a5)
     440:	00000793          	li	a5,0
     444:	00400713          	li	a4,4
     448:	1ee78a23          	sb	a4,500(a5)
     44c:	00000793          	li	a5,0
     450:	00800713          	li	a4,8
     454:	1ee78aa3          	sb	a4,501(a5)
     458:	00000793          	li	a5,0
     45c:	00400713          	li	a4,4
     460:	1ee78b23          	sb	a4,502(a5)
     464:	00000793          	li	a5,0
     468:	00200713          	li	a4,2
     46c:	1ee78ba3          	sb	a4,503(a5)
     470:	00000793          	li	a5,0
     474:	16078823          	sb	zero,368(a5)
     478:	00000793          	li	a5,0
     47c:	160788a3          	sb	zero,369(a5)
     480:	00000793          	li	a5,0
     484:	16078923          	sb	zero,370(a5)
     488:	00000793          	li	a5,0
     48c:	160789a3          	sb	zero,371(a5)
     490:	00000793          	li	a5,0
     494:	16078a23          	sb	zero,372(a5)
     498:	00000793          	li	a5,0
     49c:	16078aa3          	sb	zero,373(a5)
     4a0:	00000793          	li	a5,0
     4a4:	16078b23          	sb	zero,374(a5)
     4a8:	00000793          	li	a5,0
     4ac:	00200713          	li	a4,2
     4b0:	16e78ba3          	sb	a4,375(a5)
     4b4:	00000793          	li	a5,0
     4b8:	16078023          	sb	zero,352(a5)
     4bc:	00000793          	li	a5,0
     4c0:	160780a3          	sb	zero,353(a5)
     4c4:	00000793          	li	a5,0
     4c8:	16078123          	sb	zero,354(a5)
     4cc:	00000793          	li	a5,0
     4d0:	160781a3          	sb	zero,355(a5)
     4d4:	00000793          	li	a5,0
     4d8:	16078223          	sb	zero,356(a5)
     4dc:	00000793          	li	a5,0
     4e0:	160782a3          	sb	zero,357(a5)
     4e4:	00000793          	li	a5,0
     4e8:	16078323          	sb	zero,358(a5)
     4ec:	00000793          	li	a5,0
     4f0:	00200713          	li	a4,2
     4f4:	16e783a3          	sb	a4,359(a5)
     4f8:	00000793          	li	a5,0
     4fc:	1e078c23          	sb	zero,504(a5)
     500:	00000793          	li	a5,0
     504:	1e078ca3          	sb	zero,505(a5)
     508:	00000793          	li	a5,0
     50c:	1e078d23          	sb	zero,506(a5)
     510:	00000793          	li	a5,0
     514:	00e00713          	li	a4,14
     518:	1ee78da3          	sb	a4,507(a5)
     51c:	00000793          	li	a5,0
     520:	01000713          	li	a4,16
     524:	1ee78e23          	sb	a4,508(a5)
     528:	00000793          	li	a5,0
     52c:	00c00713          	li	a4,12
     530:	1ee78ea3          	sb	a4,509(a5)
     534:	00000793          	li	a5,0
     538:	1e078f23          	sb	zero,510(a5)
     53c:	00000793          	li	a5,0
     540:	00400713          	li	a4,4
     544:	1ee78fa3          	sb	a4,511(a5)
     548:	00000793          	li	a5,0
     54c:	2e078c23          	sb	zero,760(a5)
     550:	00000793          	li	a5,0
     554:	2e078ca3          	sb	zero,761(a5)
     558:	00000793          	li	a5,0
     55c:	2e078d23          	sb	zero,762(a5)
     560:	00000793          	li	a5,0
     564:	2e078da3          	sb	zero,763(a5)
     568:	00000793          	li	a5,0
     56c:	2e078e23          	sb	zero,764(a5)
     570:	00000793          	li	a5,0
     574:	2e078ea3          	sb	zero,765(a5)
     578:	00000793          	li	a5,0
     57c:	2e078f23          	sb	zero,766(a5)
     580:	00000793          	li	a5,0
     584:	03e00713          	li	a4,62
     588:	2ee78fa3          	sb	a4,767(a5)
     58c:	00000793          	li	a5,0
     590:	1c078823          	sb	zero,464(a5)
     594:	00000793          	li	a5,0
     598:	1c0788a3          	sb	zero,465(a5)
     59c:	00000793          	li	a5,0
     5a0:	1c078923          	sb	zero,466(a5)
     5a4:	00000793          	li	a5,0
     5a8:	1c0789a3          	sb	zero,467(a5)
     5ac:	00000793          	li	a5,0
     5b0:	1c078a23          	sb	zero,468(a5)
     5b4:	00000793          	li	a5,0
     5b8:	00200713          	li	a4,2
     5bc:	1ce78aa3          	sb	a4,469(a5)
     5c0:	00000793          	li	a5,0
     5c4:	1c078b23          	sb	zero,470(a5)
     5c8:	00000793          	li	a5,0
     5cc:	00200713          	li	a4,2
     5d0:	1ce78ba3          	sb	a4,471(a5)
     5d4:	00000793          	li	a5,0
     5d8:	16078423          	sb	zero,360(a5)
     5dc:	00000793          	li	a5,0
     5e0:	160784a3          	sb	zero,361(a5)
     5e4:	00000793          	li	a5,0
     5e8:	16078523          	sb	zero,362(a5)
     5ec:	00000793          	li	a5,0
     5f0:	160785a3          	sb	zero,363(a5)
     5f4:	00000793          	li	a5,0
     5f8:	16078623          	sb	zero,364(a5)
     5fc:	00000793          	li	a5,0
     600:	03e00713          	li	a4,62
     604:	16e786a3          	sb	a4,365(a5)
     608:	00000793          	li	a5,0
     60c:	16078723          	sb	zero,366(a5)
     610:	00000793          	li	a5,0
     614:	160787a3          	sb	zero,367(a5)
     618:	00000793          	li	a5,0
     61c:	18078023          	sb	zero,384(a5)
     620:	00000793          	li	a5,0
     624:	180780a3          	sb	zero,385(a5)
     628:	00000793          	li	a5,0
     62c:	18078123          	sb	zero,386(a5)
     630:	00000793          	li	a5,0
     634:	01c00713          	li	a4,28
     638:	18e781a3          	sb	a4,387(a5)
     63c:	00000793          	li	a5,0
     640:	02200713          	li	a4,34
     644:	18e78223          	sb	a4,388(a5)
     648:	00000793          	li	a5,0
     64c:	02200713          	li	a4,34
     650:	18e782a3          	sb	a4,389(a5)
     654:	00000793          	li	a5,0
     658:	02200713          	li	a4,34
     65c:	18e78323          	sb	a4,390(a5)
     660:	00000793          	li	a5,0
     664:	01c00713          	li	a4,28
     668:	18e783a3          	sb	a4,391(a5)
     66c:	00000793          	li	a5,0
     670:	18078423          	sb	zero,392(a5)
     674:	00000793          	li	a5,0
     678:	180784a3          	sb	zero,393(a5)
     67c:	00000793          	li	a5,0
     680:	18078523          	sb	zero,394(a5)
     684:	00000793          	li	a5,0
     688:	00800713          	li	a4,8
     68c:	18e785a3          	sb	a4,395(a5)
     690:	00000793          	li	a5,0
     694:	00c00713          	li	a4,12
     698:	18e78623          	sb	a4,396(a5)
     69c:	00000793          	li	a5,0
     6a0:	00800713          	li	a4,8
     6a4:	18e786a3          	sb	a4,397(a5)
     6a8:	00000793          	li	a5,0
     6ac:	00800713          	li	a4,8
     6b0:	18e78723          	sb	a4,398(a5)
     6b4:	00000793          	li	a5,0
     6b8:	00800713          	li	a4,8
     6bc:	18e787a3          	sb	a4,399(a5)
     6c0:	00000793          	li	a5,0
     6c4:	18078823          	sb	zero,400(a5)
     6c8:	00000793          	li	a5,0
     6cc:	180788a3          	sb	zero,401(a5)
     6d0:	00000793          	li	a5,0
     6d4:	18078923          	sb	zero,402(a5)
     6d8:	00000793          	li	a5,0
     6dc:	01e00713          	li	a4,30
     6e0:	18e789a3          	sb	a4,403(a5)
     6e4:	00000793          	li	a5,0
     6e8:	02000713          	li	a4,32
     6ec:	18e78a23          	sb	a4,404(a5)
     6f0:	00000793          	li	a5,0
     6f4:	01c00713          	li	a4,28
     6f8:	18e78aa3          	sb	a4,405(a5)
     6fc:	00000793          	li	a5,0
     700:	00200713          	li	a4,2
     704:	18e78b23          	sb	a4,406(a5)
     708:	00000793          	li	a5,0
     70c:	03e00713          	li	a4,62
     710:	18e78ba3          	sb	a4,407(a5)
     714:	00000793          	li	a5,0
     718:	18078c23          	sb	zero,408(a5)
     71c:	00000793          	li	a5,0
     720:	18078ca3          	sb	zero,409(a5)
     724:	00000793          	li	a5,0
     728:	18078d23          	sb	zero,410(a5)
     72c:	00000793          	li	a5,0
     730:	01e00713          	li	a4,30
     734:	18e78da3          	sb	a4,411(a5)
     738:	00000793          	li	a5,0
     73c:	02000713          	li	a4,32
     740:	18e78e23          	sb	a4,412(a5)
     744:	00000793          	li	a5,0
     748:	01c00713          	li	a4,28
     74c:	18e78ea3          	sb	a4,413(a5)
     750:	00000793          	li	a5,0
     754:	02000713          	li	a4,32
     758:	18e78f23          	sb	a4,414(a5)
     75c:	00000793          	li	a5,0
     760:	01e00713          	li	a4,30
     764:	18e78fa3          	sb	a4,415(a5)
     768:	00000793          	li	a5,0
     76c:	1a078023          	sb	zero,416(a5)
     770:	00000793          	li	a5,0
     774:	1a0780a3          	sb	zero,417(a5)
     778:	00000793          	li	a5,0
     77c:	1a078123          	sb	zero,418(a5)
     780:	00000793          	li	a5,0
     784:	01800713          	li	a4,24
     788:	1ae781a3          	sb	a4,419(a5)
     78c:	00000793          	li	a5,0
     790:	01400713          	li	a4,20
     794:	1ae78223          	sb	a4,420(a5)
     798:	00000793          	li	a5,0
     79c:	01200713          	li	a4,18
     7a0:	1ae782a3          	sb	a4,421(a5)
     7a4:	00000793          	li	a5,0
     7a8:	03e00713          	li	a4,62
     7ac:	1ae78323          	sb	a4,422(a5)
     7b0:	00000793          	li	a5,0
     7b4:	01000713          	li	a4,16
     7b8:	1ae783a3          	sb	a4,423(a5)
     7bc:	00000793          	li	a5,0
     7c0:	1a078423          	sb	zero,424(a5)
     7c4:	00000793          	li	a5,0
     7c8:	1a0784a3          	sb	zero,425(a5)
     7cc:	00000793          	li	a5,0
     7d0:	1a078523          	sb	zero,426(a5)
     7d4:	00000793          	li	a5,0
     7d8:	03e00713          	li	a4,62
     7dc:	1ae785a3          	sb	a4,427(a5)
     7e0:	00000793          	li	a5,0
     7e4:	00200713          	li	a4,2
     7e8:	1ae78623          	sb	a4,428(a5)
     7ec:	00000793          	li	a5,0
     7f0:	01e00713          	li	a4,30
     7f4:	1ae786a3          	sb	a4,429(a5)
     7f8:	00000793          	li	a5,0
     7fc:	02000713          	li	a4,32
     800:	1ae78723          	sb	a4,430(a5)
     804:	00000793          	li	a5,0
     808:	01e00713          	li	a4,30
     80c:	1ae787a3          	sb	a4,431(a5)
     810:	00000793          	li	a5,0
     814:	1a078823          	sb	zero,432(a5)
     818:	00000793          	li	a5,0
     81c:	1a0788a3          	sb	zero,433(a5)
     820:	00000793          	li	a5,0
     824:	1a078923          	sb	zero,434(a5)
     828:	00000793          	li	a5,0
     82c:	01c00713          	li	a4,28
     830:	1ae789a3          	sb	a4,435(a5)
     834:	00000793          	li	a5,0
     838:	00200713          	li	a4,2
     83c:	1ae78a23          	sb	a4,436(a5)
     840:	00000793          	li	a5,0
     844:	01e00713          	li	a4,30
     848:	1ae78aa3          	sb	a4,437(a5)
     84c:	00000793          	li	a5,0
     850:	02200713          	li	a4,34
     854:	1ae78b23          	sb	a4,438(a5)
     858:	00000793          	li	a5,0
     85c:	01c00713          	li	a4,28
     860:	1ae78ba3          	sb	a4,439(a5)
     864:	00000793          	li	a5,0
     868:	1a078c23          	sb	zero,440(a5)
     86c:	00000793          	li	a5,0
     870:	1a078ca3          	sb	zero,441(a5)
     874:	00000793          	li	a5,0
     878:	1a078d23          	sb	zero,442(a5)
     87c:	00000793          	li	a5,0
     880:	03e00713          	li	a4,62
     884:	1ae78da3          	sb	a4,443(a5)
     888:	00000793          	li	a5,0
     88c:	02000713          	li	a4,32
     890:	1ae78e23          	sb	a4,444(a5)
     894:	00000793          	li	a5,0
     898:	01000713          	li	a4,16
     89c:	1ae78ea3          	sb	a4,445(a5)
     8a0:	00000793          	li	a5,0
     8a4:	00800713          	li	a4,8
     8a8:	1ae78f23          	sb	a4,446(a5)
     8ac:	00000793          	li	a5,0
     8b0:	00400713          	li	a4,4
     8b4:	1ae78fa3          	sb	a4,447(a5)
     8b8:	00000793          	li	a5,0
     8bc:	1c078023          	sb	zero,448(a5)
     8c0:	00000793          	li	a5,0
     8c4:	1c0780a3          	sb	zero,449(a5)
     8c8:	00000793          	li	a5,0
     8cc:	1c078123          	sb	zero,450(a5)
     8d0:	00000793          	li	a5,0
     8d4:	01c00713          	li	a4,28
     8d8:	1ce781a3          	sb	a4,451(a5)
     8dc:	00000793          	li	a5,0
     8e0:	02200713          	li	a4,34
     8e4:	1ce78223          	sb	a4,452(a5)
     8e8:	00000793          	li	a5,0
     8ec:	01c00713          	li	a4,28
     8f0:	1ce782a3          	sb	a4,453(a5)
     8f4:	00000793          	li	a5,0
     8f8:	02200713          	li	a4,34
     8fc:	1ce78323          	sb	a4,454(a5)
     900:	00000793          	li	a5,0
     904:	01c00713          	li	a4,28
     908:	1ce783a3          	sb	a4,455(a5)
     90c:	00000793          	li	a5,0
     910:	1c078423          	sb	zero,456(a5)
     914:	00000793          	li	a5,0
     918:	1c0784a3          	sb	zero,457(a5)
     91c:	00000793          	li	a5,0
     920:	1c078523          	sb	zero,458(a5)
     924:	00000793          	li	a5,0
     928:	01c00713          	li	a4,28
     92c:	1ce785a3          	sb	a4,459(a5)
     930:	00000793          	li	a5,0
     934:	02200713          	li	a4,34
     938:	1ce78623          	sb	a4,460(a5)
     93c:	00000793          	li	a5,0
     940:	03c00713          	li	a4,60
     944:	1ce786a3          	sb	a4,461(a5)
     948:	00000793          	li	a5,0
     94c:	02000713          	li	a4,32
     950:	1ce78723          	sb	a4,462(a5)
     954:	00000793          	li	a5,0
     958:	01c00713          	li	a4,28
     95c:	1ce787a3          	sb	a4,463(a5)
     960:	00000793          	li	a5,0
     964:	20078423          	sb	zero,520(a5)
     968:	00000793          	li	a5,0
     96c:	200784a3          	sb	zero,521(a5)
     970:	00000793          	li	a5,0
     974:	20078523          	sb	zero,522(a5)
     978:	00000793          	li	a5,0
     97c:	01c00713          	li	a4,28
     980:	20e785a3          	sb	a4,523(a5)
     984:	00000793          	li	a5,0
     988:	02200713          	li	a4,34
     98c:	20e78623          	sb	a4,524(a5)
     990:	00000793          	li	a5,0
     994:	03e00713          	li	a4,62
     998:	20e786a3          	sb	a4,525(a5)
     99c:	00000793          	li	a5,0
     9a0:	02200713          	li	a4,34
     9a4:	20e78723          	sb	a4,526(a5)
     9a8:	00000793          	li	a5,0
     9ac:	02200713          	li	a4,34
     9b0:	20e787a3          	sb	a4,527(a5)
     9b4:	00000793          	li	a5,0
     9b8:	20078823          	sb	zero,528(a5)
     9bc:	00000793          	li	a5,0
     9c0:	200788a3          	sb	zero,529(a5)
     9c4:	00000793          	li	a5,0
     9c8:	20078923          	sb	zero,530(a5)
     9cc:	00000793          	li	a5,0
     9d0:	01e00713          	li	a4,30
     9d4:	20e789a3          	sb	a4,531(a5)
     9d8:	00000793          	li	a5,0
     9dc:	02200713          	li	a4,34
     9e0:	20e78a23          	sb	a4,532(a5)
     9e4:	00000793          	li	a5,0
     9e8:	01e00713          	li	a4,30
     9ec:	20e78aa3          	sb	a4,533(a5)
     9f0:	00000793          	li	a5,0
     9f4:	02200713          	li	a4,34
     9f8:	20e78b23          	sb	a4,534(a5)
     9fc:	00000793          	li	a5,0
     a00:	01e00713          	li	a4,30
     a04:	20e78ba3          	sb	a4,535(a5)
     a08:	00000793          	li	a5,0
     a0c:	20078c23          	sb	zero,536(a5)
     a10:	00000793          	li	a5,0
     a14:	20078ca3          	sb	zero,537(a5)
     a18:	00000793          	li	a5,0
     a1c:	20078d23          	sb	zero,538(a5)
     a20:	00000793          	li	a5,0
     a24:	01c00713          	li	a4,28
     a28:	20e78da3          	sb	a4,539(a5)
     a2c:	00000793          	li	a5,0
     a30:	02200713          	li	a4,34
     a34:	20e78e23          	sb	a4,540(a5)
     a38:	00000793          	li	a5,0
     a3c:	00200713          	li	a4,2
     a40:	20e78ea3          	sb	a4,541(a5)
     a44:	00000793          	li	a5,0
     a48:	02200713          	li	a4,34
     a4c:	20e78f23          	sb	a4,542(a5)
     a50:	00000793          	li	a5,0
     a54:	01c00713          	li	a4,28
     a58:	20e78fa3          	sb	a4,543(a5)
     a5c:	00000793          	li	a5,0
     a60:	22078023          	sb	zero,544(a5)
     a64:	00000793          	li	a5,0
     a68:	220780a3          	sb	zero,545(a5)
     a6c:	00000793          	li	a5,0
     a70:	22078123          	sb	zero,546(a5)
     a74:	00000793          	li	a5,0
     a78:	01e00713          	li	a4,30
     a7c:	22e781a3          	sb	a4,547(a5)
     a80:	00000793          	li	a5,0
     a84:	02200713          	li	a4,34
     a88:	22e78223          	sb	a4,548(a5)
     a8c:	00000793          	li	a5,0
     a90:	02200713          	li	a4,34
     a94:	22e782a3          	sb	a4,549(a5)
     a98:	00000793          	li	a5,0
     a9c:	02200713          	li	a4,34
     aa0:	22e78323          	sb	a4,550(a5)
     aa4:	00000793          	li	a5,0
     aa8:	01e00713          	li	a4,30
     aac:	22e783a3          	sb	a4,551(a5)
     ab0:	00000793          	li	a5,0
     ab4:	22078423          	sb	zero,552(a5)
     ab8:	00000793          	li	a5,0
     abc:	220784a3          	sb	zero,553(a5)
     ac0:	00000793          	li	a5,0
     ac4:	22078523          	sb	zero,554(a5)
     ac8:	00000793          	li	a5,0
     acc:	01c00713          	li	a4,28
     ad0:	22e785a3          	sb	a4,555(a5)
     ad4:	00000793          	li	a5,0
     ad8:	00200713          	li	a4,2
     adc:	22e78623          	sb	a4,556(a5)
     ae0:	00000793          	li	a5,0
     ae4:	00e00713          	li	a4,14
     ae8:	22e786a3          	sb	a4,557(a5)
     aec:	00000793          	li	a5,0
     af0:	00200713          	li	a4,2
     af4:	22e78723          	sb	a4,558(a5)
     af8:	00000793          	li	a5,0
     afc:	01c00713          	li	a4,28
     b00:	22e787a3          	sb	a4,559(a5)
     b04:	00000793          	li	a5,0
     b08:	22078823          	sb	zero,560(a5)
     b0c:	00000793          	li	a5,0
     b10:	220788a3          	sb	zero,561(a5)
     b14:	00000793          	li	a5,0
     b18:	22078923          	sb	zero,562(a5)
     b1c:	00000793          	li	a5,0
     b20:	03c00713          	li	a4,60
     b24:	22e789a3          	sb	a4,563(a5)
     b28:	00000793          	li	a5,0
     b2c:	00200713          	li	a4,2
     b30:	22e78a23          	sb	a4,564(a5)
     b34:	00000793          	li	a5,0
     b38:	03e00713          	li	a4,62
     b3c:	22e78aa3          	sb	a4,565(a5)
     b40:	00000793          	li	a5,0
     b44:	00200713          	li	a4,2
     b48:	22e78b23          	sb	a4,566(a5)
     b4c:	00000793          	li	a5,0
     b50:	00200713          	li	a4,2
     b54:	22e78ba3          	sb	a4,567(a5)
     b58:	00000793          	li	a5,0
     b5c:	22078c23          	sb	zero,568(a5)
     b60:	00000793          	li	a5,0
     b64:	22078ca3          	sb	zero,569(a5)
     b68:	00000793          	li	a5,0
     b6c:	22078d23          	sb	zero,570(a5)
     b70:	00000793          	li	a5,0
     b74:	03c00713          	li	a4,60
     b78:	22e78da3          	sb	a4,571(a5)
     b7c:	00000793          	li	a5,0
     b80:	00200713          	li	a4,2
     b84:	22e78e23          	sb	a4,572(a5)
     b88:	00000793          	li	a5,0
     b8c:	03a00713          	li	a4,58
     b90:	22e78ea3          	sb	a4,573(a5)
     b94:	00000793          	li	a5,0
     b98:	02200713          	li	a4,34
     b9c:	22e78f23          	sb	a4,574(a5)
     ba0:	00000793          	li	a5,0
     ba4:	03c00713          	li	a4,60
     ba8:	22e78fa3          	sb	a4,575(a5)
     bac:	00000793          	li	a5,0
     bb0:	24078023          	sb	zero,576(a5)
     bb4:	00000793          	li	a5,0
     bb8:	240780a3          	sb	zero,577(a5)
     bbc:	00000793          	li	a5,0
     bc0:	24078123          	sb	zero,578(a5)
     bc4:	00000793          	li	a5,0
     bc8:	02200713          	li	a4,34
     bcc:	24e781a3          	sb	a4,579(a5)
     bd0:	00000793          	li	a5,0
     bd4:	02200713          	li	a4,34
     bd8:	24e78223          	sb	a4,580(a5)
     bdc:	00000793          	li	a5,0
     be0:	03e00713          	li	a4,62
     be4:	24e782a3          	sb	a4,581(a5)
     be8:	00000793          	li	a5,0
     bec:	02200713          	li	a4,34
     bf0:	24e78323          	sb	a4,582(a5)
     bf4:	00000793          	li	a5,0
     bf8:	02200713          	li	a4,34
     bfc:	24e783a3          	sb	a4,583(a5)
     c00:	00000793          	li	a5,0
     c04:	24078423          	sb	zero,584(a5)
     c08:	00000793          	li	a5,0
     c0c:	240784a3          	sb	zero,585(a5)
     c10:	00000793          	li	a5,0
     c14:	24078523          	sb	zero,586(a5)
     c18:	00000793          	li	a5,0
     c1c:	00800713          	li	a4,8
     c20:	24e785a3          	sb	a4,587(a5)
     c24:	00000793          	li	a5,0
     c28:	00800713          	li	a4,8
     c2c:	24e78623          	sb	a4,588(a5)
     c30:	00000793          	li	a5,0
     c34:	00800713          	li	a4,8
     c38:	24e786a3          	sb	a4,589(a5)
     c3c:	00000793          	li	a5,0
     c40:	00800713          	li	a4,8
     c44:	24e78723          	sb	a4,590(a5)
     c48:	00000793          	li	a5,0
     c4c:	00800713          	li	a4,8
     c50:	24e787a3          	sb	a4,591(a5)
     c54:	00000793          	li	a5,0
     c58:	24078823          	sb	zero,592(a5)
     c5c:	00000793          	li	a5,0
     c60:	240788a3          	sb	zero,593(a5)
     c64:	00000793          	li	a5,0
     c68:	24078923          	sb	zero,594(a5)
     c6c:	00000793          	li	a5,0
     c70:	03800713          	li	a4,56
     c74:	24e789a3          	sb	a4,595(a5)
     c78:	00000793          	li	a5,0
     c7c:	02000713          	li	a4,32
     c80:	24e78a23          	sb	a4,596(a5)
     c84:	00000793          	li	a5,0
     c88:	02000713          	li	a4,32
     c8c:	24e78aa3          	sb	a4,597(a5)
     c90:	00000793          	li	a5,0
     c94:	02200713          	li	a4,34
     c98:	24e78b23          	sb	a4,598(a5)
     c9c:	00000793          	li	a5,0
     ca0:	01c00713          	li	a4,28
     ca4:	24e78ba3          	sb	a4,599(a5)
     ca8:	00000793          	li	a5,0
     cac:	24078c23          	sb	zero,600(a5)
     cb0:	00000793          	li	a5,0
     cb4:	24078ca3          	sb	zero,601(a5)
     cb8:	00000793          	li	a5,0
     cbc:	24078d23          	sb	zero,602(a5)
     cc0:	00000793          	li	a5,0
     cc4:	02200713          	li	a4,34
     cc8:	24e78da3          	sb	a4,603(a5)
     ccc:	00000793          	li	a5,0
     cd0:	01200713          	li	a4,18
     cd4:	24e78e23          	sb	a4,604(a5)
     cd8:	00000793          	li	a5,0
     cdc:	00e00713          	li	a4,14
     ce0:	24e78ea3          	sb	a4,605(a5)
     ce4:	00000793          	li	a5,0
     ce8:	01200713          	li	a4,18
     cec:	24e78f23          	sb	a4,606(a5)
     cf0:	00000793          	li	a5,0
     cf4:	02200713          	li	a4,34
     cf8:	24e78fa3          	sb	a4,607(a5)
     cfc:	00000793          	li	a5,0
     d00:	26078023          	sb	zero,608(a5)
     d04:	00000793          	li	a5,0
     d08:	260780a3          	sb	zero,609(a5)
     d0c:	00000793          	li	a5,0
     d10:	26078123          	sb	zero,610(a5)
     d14:	00000793          	li	a5,0
     d18:	00200713          	li	a4,2
     d1c:	26e781a3          	sb	a4,611(a5)
     d20:	00000793          	li	a5,0
     d24:	00200713          	li	a4,2
     d28:	26e78223          	sb	a4,612(a5)
     d2c:	00000793          	li	a5,0
     d30:	00200713          	li	a4,2
     d34:	26e782a3          	sb	a4,613(a5)
     d38:	00000793          	li	a5,0
     d3c:	00200713          	li	a4,2
     d40:	26e78323          	sb	a4,614(a5)
     d44:	00000793          	li	a5,0
     d48:	01e00713          	li	a4,30
     d4c:	26e783a3          	sb	a4,615(a5)
     d50:	00000793          	li	a5,0
     d54:	26078423          	sb	zero,616(a5)
     d58:	00000793          	li	a5,0
     d5c:	260784a3          	sb	zero,617(a5)
     d60:	00000793          	li	a5,0
     d64:	26078523          	sb	zero,618(a5)
     d68:	00000793          	li	a5,0
     d6c:	02200713          	li	a4,34
     d70:	26e785a3          	sb	a4,619(a5)
     d74:	00000793          	li	a5,0
     d78:	03600713          	li	a4,54
     d7c:	26e78623          	sb	a4,620(a5)
     d80:	00000793          	li	a5,0
     d84:	02a00713          	li	a4,42
     d88:	26e786a3          	sb	a4,621(a5)
     d8c:	00000793          	li	a5,0
     d90:	02200713          	li	a4,34
     d94:	26e78723          	sb	a4,622(a5)
     d98:	00000793          	li	a5,0
     d9c:	02200713          	li	a4,34
     da0:	26e787a3          	sb	a4,623(a5)
     da4:	00000793          	li	a5,0
     da8:	26078823          	sb	zero,624(a5)
     dac:	00000793          	li	a5,0
     db0:	260788a3          	sb	zero,625(a5)
     db4:	00000793          	li	a5,0
     db8:	26078923          	sb	zero,626(a5)
     dbc:	00000793          	li	a5,0
     dc0:	02200713          	li	a4,34
     dc4:	26e789a3          	sb	a4,627(a5)
     dc8:	00000793          	li	a5,0
     dcc:	02600713          	li	a4,38
     dd0:	26e78a23          	sb	a4,628(a5)
     dd4:	00000793          	li	a5,0
     dd8:	02a00713          	li	a4,42
     ddc:	26e78aa3          	sb	a4,629(a5)
     de0:	00000793          	li	a5,0
     de4:	03200713          	li	a4,50
     de8:	26e78b23          	sb	a4,630(a5)
     dec:	00000793          	li	a5,0
     df0:	02200713          	li	a4,34
     df4:	26e78ba3          	sb	a4,631(a5)
     df8:	00000793          	li	a5,0
     dfc:	26078c23          	sb	zero,632(a5)
     e00:	00000793          	li	a5,0
     e04:	26078ca3          	sb	zero,633(a5)
     e08:	00000793          	li	a5,0
     e0c:	26078d23          	sb	zero,634(a5)
     e10:	00000793          	li	a5,0
     e14:	01c00713          	li	a4,28
     e18:	26e78da3          	sb	a4,635(a5)
     e1c:	00000793          	li	a5,0
     e20:	02200713          	li	a4,34
     e24:	26e78e23          	sb	a4,636(a5)
     e28:	00000793          	li	a5,0
     e2c:	02200713          	li	a4,34
     e30:	26e78ea3          	sb	a4,637(a5)
     e34:	00000793          	li	a5,0
     e38:	02200713          	li	a4,34
     e3c:	26e78f23          	sb	a4,638(a5)
     e40:	00000793          	li	a5,0
     e44:	01c00713          	li	a4,28
     e48:	26e78fa3          	sb	a4,639(a5)
     e4c:	00000793          	li	a5,0
     e50:	28078023          	sb	zero,640(a5)
     e54:	00000793          	li	a5,0
     e58:	280780a3          	sb	zero,641(a5)
     e5c:	00000793          	li	a5,0
     e60:	28078123          	sb	zero,642(a5)
     e64:	00000793          	li	a5,0
     e68:	01e00713          	li	a4,30
     e6c:	28e781a3          	sb	a4,643(a5)
     e70:	00000793          	li	a5,0
     e74:	02200713          	li	a4,34
     e78:	28e78223          	sb	a4,644(a5)
     e7c:	00000793          	li	a5,0
     e80:	01e00713          	li	a4,30
     e84:	28e782a3          	sb	a4,645(a5)
     e88:	00000793          	li	a5,0
     e8c:	00200713          	li	a4,2
     e90:	28e78323          	sb	a4,646(a5)
     e94:	00000793          	li	a5,0
     e98:	00200713          	li	a4,2
     e9c:	28e783a3          	sb	a4,647(a5)
     ea0:	00000793          	li	a5,0
     ea4:	28078423          	sb	zero,648(a5)
     ea8:	00000793          	li	a5,0
     eac:	280784a3          	sb	zero,649(a5)
     eb0:	00000793          	li	a5,0
     eb4:	28078523          	sb	zero,650(a5)
     eb8:	00000793          	li	a5,0
     ebc:	01c00713          	li	a4,28
     ec0:	28e785a3          	sb	a4,651(a5)
     ec4:	00000793          	li	a5,0
     ec8:	02200713          	li	a4,34
     ecc:	28e78623          	sb	a4,652(a5)
     ed0:	00000793          	li	a5,0
     ed4:	02200713          	li	a4,34
     ed8:	28e786a3          	sb	a4,653(a5)
     edc:	00000793          	li	a5,0
     ee0:	02a00713          	li	a4,42
     ee4:	28e78723          	sb	a4,654(a5)
     ee8:	00000793          	li	a5,0
     eec:	01c00713          	li	a4,28
     ef0:	28e787a3          	sb	a4,655(a5)
     ef4:	00000793          	li	a5,0
     ef8:	28078823          	sb	zero,656(a5)
     efc:	00000793          	li	a5,0
     f00:	280788a3          	sb	zero,657(a5)
     f04:	00000793          	li	a5,0
     f08:	28078923          	sb	zero,658(a5)
     f0c:	00000793          	li	a5,0
     f10:	01e00713          	li	a4,30
     f14:	28e789a3          	sb	a4,659(a5)
     f18:	00000793          	li	a5,0
     f1c:	02200713          	li	a4,34
     f20:	28e78a23          	sb	a4,660(a5)
     f24:	00000793          	li	a5,0
     f28:	01e00713          	li	a4,30
     f2c:	28e78aa3          	sb	a4,661(a5)
     f30:	00000793          	li	a5,0
     f34:	01200713          	li	a4,18
     f38:	28e78b23          	sb	a4,662(a5)
     f3c:	00000793          	li	a5,0
     f40:	02200713          	li	a4,34
     f44:	28e78ba3          	sb	a4,663(a5)
     f48:	00000793          	li	a5,0
     f4c:	28078c23          	sb	zero,664(a5)
     f50:	00000793          	li	a5,0
     f54:	28078ca3          	sb	zero,665(a5)
     f58:	00000793          	li	a5,0
     f5c:	28078d23          	sb	zero,666(a5)
     f60:	00000793          	li	a5,0
     f64:	03c00713          	li	a4,60
     f68:	28e78da3          	sb	a4,667(a5)
     f6c:	00000793          	li	a5,0
     f70:	00200713          	li	a4,2
     f74:	28e78e23          	sb	a4,668(a5)
     f78:	00000793          	li	a5,0
     f7c:	01c00713          	li	a4,28
     f80:	28e78ea3          	sb	a4,669(a5)
     f84:	00000793          	li	a5,0
     f88:	02000713          	li	a4,32
     f8c:	28e78f23          	sb	a4,670(a5)
     f90:	00000793          	li	a5,0
     f94:	01e00713          	li	a4,30
     f98:	28e78fa3          	sb	a4,671(a5)
     f9c:	00000793          	li	a5,0
     fa0:	2a078023          	sb	zero,672(a5)
     fa4:	00000793          	li	a5,0
     fa8:	2a0780a3          	sb	zero,673(a5)
     fac:	00000793          	li	a5,0
     fb0:	2a078123          	sb	zero,674(a5)
     fb4:	00000793          	li	a5,0
     fb8:	03e00713          	li	a4,62
     fbc:	2ae781a3          	sb	a4,675(a5)
     fc0:	00000793          	li	a5,0
     fc4:	00800713          	li	a4,8
     fc8:	2ae78223          	sb	a4,676(a5)
     fcc:	00000793          	li	a5,0
     fd0:	00800713          	li	a4,8
     fd4:	2ae782a3          	sb	a4,677(a5)
     fd8:	00000793          	li	a5,0
     fdc:	00800713          	li	a4,8
     fe0:	2ae78323          	sb	a4,678(a5)
     fe4:	00000793          	li	a5,0
     fe8:	00800713          	li	a4,8
     fec:	2ae783a3          	sb	a4,679(a5)
     ff0:	00000793          	li	a5,0
     ff4:	2a078423          	sb	zero,680(a5)
     ff8:	00000793          	li	a5,0
     ffc:	2a0784a3          	sb	zero,681(a5)
    1000:	00000793          	li	a5,0
    1004:	2a078523          	sb	zero,682(a5)
    1008:	00000793          	li	a5,0
    100c:	02200713          	li	a4,34
    1010:	2ae785a3          	sb	a4,683(a5)
    1014:	00000793          	li	a5,0
    1018:	02200713          	li	a4,34
    101c:	2ae78623          	sb	a4,684(a5)
    1020:	00000793          	li	a5,0
    1024:	02200713          	li	a4,34
    1028:	2ae786a3          	sb	a4,685(a5)
    102c:	00000793          	li	a5,0
    1030:	02200713          	li	a4,34
    1034:	2ae78723          	sb	a4,686(a5)
    1038:	00000793          	li	a5,0
    103c:	01c00713          	li	a4,28
    1040:	2ae787a3          	sb	a4,687(a5)
    1044:	00000793          	li	a5,0
    1048:	2a078823          	sb	zero,688(a5)
    104c:	00000793          	li	a5,0
    1050:	2a0788a3          	sb	zero,689(a5)
    1054:	00000793          	li	a5,0
    1058:	2a078923          	sb	zero,690(a5)
    105c:	00000793          	li	a5,0
    1060:	02200713          	li	a4,34
    1064:	2ae789a3          	sb	a4,691(a5)
    1068:	00000793          	li	a5,0
    106c:	02200713          	li	a4,34
    1070:	2ae78a23          	sb	a4,692(a5)
    1074:	00000793          	li	a5,0
    1078:	02200713          	li	a4,34
    107c:	2ae78aa3          	sb	a4,693(a5)
    1080:	00000793          	li	a5,0
    1084:	01400713          	li	a4,20
    1088:	2ae78b23          	sb	a4,694(a5)
    108c:	00000793          	li	a5,0
    1090:	00800713          	li	a4,8
    1094:	2ae78ba3          	sb	a4,695(a5)
    1098:	00000793          	li	a5,0
    109c:	2a078c23          	sb	zero,696(a5)
    10a0:	00000793          	li	a5,0
    10a4:	2a078ca3          	sb	zero,697(a5)
    10a8:	00000793          	li	a5,0
    10ac:	2a078d23          	sb	zero,698(a5)
    10b0:	00000793          	li	a5,0
    10b4:	02a00713          	li	a4,42
    10b8:	2ae78da3          	sb	a4,699(a5)
    10bc:	00000793          	li	a5,0
    10c0:	02a00713          	li	a4,42
    10c4:	2ae78e23          	sb	a4,700(a5)
    10c8:	00000793          	li	a5,0
    10cc:	02a00713          	li	a4,42
    10d0:	2ae78ea3          	sb	a4,701(a5)
    10d4:	00000793          	li	a5,0
    10d8:	02a00713          	li	a4,42
    10dc:	2ae78f23          	sb	a4,702(a5)
    10e0:	00000793          	li	a5,0
    10e4:	01400713          	li	a4,20
    10e8:	2ae78fa3          	sb	a4,703(a5)
    10ec:	00000793          	li	a5,0
    10f0:	2c078023          	sb	zero,704(a5)
    10f4:	00000793          	li	a5,0
    10f8:	2c0780a3          	sb	zero,705(a5)
    10fc:	00000793          	li	a5,0
    1100:	2c078123          	sb	zero,706(a5)
    1104:	00000793          	li	a5,0
    1108:	02200713          	li	a4,34
    110c:	2ce781a3          	sb	a4,707(a5)
    1110:	00000793          	li	a5,0
    1114:	01400713          	li	a4,20
    1118:	2ce78223          	sb	a4,708(a5)
    111c:	00000793          	li	a5,0
    1120:	00800713          	li	a4,8
    1124:	2ce782a3          	sb	a4,709(a5)
    1128:	00000793          	li	a5,0
    112c:	01400713          	li	a4,20
    1130:	2ce78323          	sb	a4,710(a5)
    1134:	00000793          	li	a5,0
    1138:	02200713          	li	a4,34
    113c:	2ce783a3          	sb	a4,711(a5)
    1140:	00000793          	li	a5,0
    1144:	2c078423          	sb	zero,712(a5)
    1148:	00000793          	li	a5,0
    114c:	2c0784a3          	sb	zero,713(a5)
    1150:	00000793          	li	a5,0
    1154:	2c078523          	sb	zero,714(a5)
    1158:	00000793          	li	a5,0
    115c:	03e00713          	li	a4,62
    1160:	2ce785a3          	sb	a4,715(a5)
    1164:	00000793          	li	a5,0
    1168:	01000713          	li	a4,16
    116c:	2ce78623          	sb	a4,716(a5)
    1170:	00000793          	li	a5,0
    1174:	00800713          	li	a4,8
    1178:	2ce786a3          	sb	a4,717(a5)
    117c:	00000793          	li	a5,0
    1180:	00400713          	li	a4,4
    1184:	2ce78723          	sb	a4,718(a5)
    1188:	00000793          	li	a5,0
    118c:	03e00713          	li	a4,62
    1190:	2ce787a3          	sb	a4,719(a5)
    1194:	00000793          	li	a5,0
    1198:	2c078823          	sb	zero,720(a5)
    119c:	00000793          	li	a5,0
    11a0:	2c0788a3          	sb	zero,721(a5)
    11a4:	00000793          	li	a5,0
    11a8:	2c078923          	sb	zero,722(a5)
    11ac:	00000793          	li	a5,0
    11b0:	02200713          	li	a4,34
    11b4:	2ce789a3          	sb	a4,723(a5)
    11b8:	00000793          	li	a5,0
    11bc:	01e00713          	li	a4,30
    11c0:	2ce78a23          	sb	a4,724(a5)
    11c4:	00000793          	li	a5,0
    11c8:	01800713          	li	a4,24
    11cc:	2ce78aa3          	sb	a4,725(a5)
    11d0:	00000793          	li	a5,0
    11d4:	00800713          	li	a4,8
    11d8:	2ce78b23          	sb	a4,726(a5)
    11dc:	00000793          	li	a5,0
    11e0:	00800713          	li	a4,8
    11e4:	2ce78ba3          	sb	a4,727(a5)
    11e8:	00000013          	nop
    11ec:	00c12403          	lw	s0,12(sp)
    11f0:	01010113          	addi	sp,sp,16
    11f4:	00008067          	ret

000011f8 <display_terminal>:
    11f8:	ff010113          	addi	sp,sp,-16
    11fc:	00112623          	sw	ra,12(sp)
    1200:	00812423          	sw	s0,8(sp)
    1204:	01010413          	addi	s0,sp,16
    1208:	28000613          	li	a2,640
    120c:	00000593          	li	a1,0
    1210:	00000513          	li	a0,0
    1214:	920ff0ef          	jal	ra,334 <writeChar>
    1218:	24800613          	li	a2,584
    121c:	00000593          	li	a1,0
    1220:	00100513          	li	a0,1
    1224:	910ff0ef          	jal	ra,334 <writeChar>
    1228:	27000613          	li	a2,624
    122c:	00000593          	li	a1,0
    1230:	00200513          	li	a0,2
    1234:	900ff0ef          	jal	ra,334 <writeChar>
    1238:	22800613          	li	a2,552
    123c:	00000593          	li	a1,0
    1240:	00300513          	li	a0,3
    1244:	8f0ff0ef          	jal	ra,334 <writeChar>
    1248:	29800613          	li	a2,664
    124c:	00000593          	li	a1,0
    1250:	00400513          	li	a0,4
    1254:	8e0ff0ef          	jal	ra,334 <writeChar>
    1258:	24000613          	li	a2,576
    125c:	00000593          	li	a1,0
    1260:	00500513          	li	a0,5
    1264:	8d0ff0ef          	jal	ra,334 <writeChar>
    1268:	22800613          	li	a2,552
    126c:	00000593          	li	a1,0
    1270:	00600513          	li	a0,6
    1274:	8c0ff0ef          	jal	ra,334 <writeChar>
    1278:	26000613          	li	a2,608
    127c:	00000593          	li	a1,0
    1280:	00700513          	li	a0,7
    1284:	8b0ff0ef          	jal	ra,334 <writeChar>
    1288:	26000613          	li	a2,608
    128c:	00000593          	li	a1,0
    1290:	00800513          	li	a0,8
    1294:	8a0ff0ef          	jal	ra,334 <writeChar>
    1298:	2b000613          	li	a2,688
    129c:	00000593          	li	a1,0
    12a0:	00a00513          	li	a0,10
    12a4:	890ff0ef          	jal	ra,334 <writeChar>
    12a8:	1b000613          	li	a2,432
    12ac:	00000593          	li	a1,0
    12b0:	00b00513          	li	a0,11
    12b4:	880ff0ef          	jal	ra,334 <writeChar>
    12b8:	1f000613          	li	a2,496
    12bc:	00100593          	li	a1,1
    12c0:	00000513          	li	a0,0
    12c4:	870ff0ef          	jal	ra,334 <writeChar>
    12c8:	00001737          	lui	a4,0x1
    12cc:	38870713          	addi	a4,a4,904 # 1388 <drawCircle+0x94>
    12d0:	40e02c23          	sw	a4,1048(zero) # 418 <CURSOR_DELAY>
    12d4:	40002823          	sw	zero,1040(zero) # 410 <cursor_delay>
    12d8:	00100713          	li	a4,1
    12dc:	40e02a23          	sw	a4,1044(zero) # 414 <cursor_visible>
    12e0:	00000013          	nop
    12e4:	00c12083          	lw	ra,12(sp)
    12e8:	00812403          	lw	s0,8(sp)
    12ec:	01010113          	addi	sp,sp,16
    12f0:	00008067          	ret

000012f4 <drawCircle>:
    12f4:	fe010113          	addi	sp,sp,-32
    12f8:	00112e23          	sw	ra,28(sp)
    12fc:	00812c23          	sw	s0,24(sp)
    1300:	02010413          	addi	s0,sp,32
    1304:	fea42623          	sw	a0,-20(s0)
    1308:	feb42423          	sw	a1,-24(s0)
    130c:	fec42223          	sw	a2,-28(s0)
    1310:	fed42023          	sw	a3,-32(s0)
    1314:	fec42703          	lw	a4,-20(s0)
    1318:	fe442783          	lw	a5,-28(s0)
    131c:	00f706b3          	add	a3,a4,a5
    1320:	fe842703          	lw	a4,-24(s0)
    1324:	fe042783          	lw	a5,-32(s0)
    1328:	00f707b3          	add	a5,a4,a5
    132c:	00078593          	mv	a1,a5
    1330:	00068513          	mv	a0,a3
    1334:	eadfe0ef          	jal	ra,1e0 <writePixel>
    1338:	fec42703          	lw	a4,-20(s0)
    133c:	fe442783          	lw	a5,-28(s0)
    1340:	40f706b3          	sub	a3,a4,a5
    1344:	fe842703          	lw	a4,-24(s0)
    1348:	fe042783          	lw	a5,-32(s0)
    134c:	00f707b3          	add	a5,a4,a5
    1350:	00078593          	mv	a1,a5
    1354:	00068513          	mv	a0,a3
    1358:	e89fe0ef          	jal	ra,1e0 <writePixel>
    135c:	fec42703          	lw	a4,-20(s0)
    1360:	fe442783          	lw	a5,-28(s0)
    1364:	00f706b3          	add	a3,a4,a5
    1368:	fe842703          	lw	a4,-24(s0)
    136c:	fe042783          	lw	a5,-32(s0)
    1370:	40f707b3          	sub	a5,a4,a5
    1374:	00078593          	mv	a1,a5
    1378:	00068513          	mv	a0,a3
    137c:	e65fe0ef          	jal	ra,1e0 <writePixel>
    1380:	fec42703          	lw	a4,-20(s0)
    1384:	fe442783          	lw	a5,-28(s0)
    1388:	40f706b3          	sub	a3,a4,a5
    138c:	fe842703          	lw	a4,-24(s0)
    1390:	fe042783          	lw	a5,-32(s0)
    1394:	40f707b3          	sub	a5,a4,a5
    1398:	00078593          	mv	a1,a5
    139c:	00068513          	mv	a0,a3
    13a0:	e41fe0ef          	jal	ra,1e0 <writePixel>
    13a4:	fec42703          	lw	a4,-20(s0)
    13a8:	fe042783          	lw	a5,-32(s0)
    13ac:	00f706b3          	add	a3,a4,a5
    13b0:	fe842703          	lw	a4,-24(s0)
    13b4:	fe442783          	lw	a5,-28(s0)
    13b8:	00f707b3          	add	a5,a4,a5
    13bc:	00078593          	mv	a1,a5
    13c0:	00068513          	mv	a0,a3
    13c4:	e1dfe0ef          	jal	ra,1e0 <writePixel>
    13c8:	fec42703          	lw	a4,-20(s0)
    13cc:	fe042783          	lw	a5,-32(s0)
    13d0:	40f706b3          	sub	a3,a4,a5
    13d4:	fe842703          	lw	a4,-24(s0)
    13d8:	fe442783          	lw	a5,-28(s0)
    13dc:	00f707b3          	add	a5,a4,a5
    13e0:	00078593          	mv	a1,a5
    13e4:	00068513          	mv	a0,a3
    13e8:	df9fe0ef          	jal	ra,1e0 <writePixel>
    13ec:	fec42703          	lw	a4,-20(s0)
    13f0:	fe042783          	lw	a5,-32(s0)
    13f4:	00f706b3          	add	a3,a4,a5
    13f8:	fe842703          	lw	a4,-24(s0)
    13fc:	fe442783          	lw	a5,-28(s0)
    1400:	40f707b3          	sub	a5,a4,a5
    1404:	00078593          	mv	a1,a5
    1408:	00068513          	mv	a0,a3
    140c:	dd5fe0ef          	jal	ra,1e0 <writePixel>
    1410:	fec42703          	lw	a4,-20(s0)
    1414:	fe042783          	lw	a5,-32(s0)
    1418:	40f706b3          	sub	a3,a4,a5
    141c:	fe842703          	lw	a4,-24(s0)
    1420:	fe442783          	lw	a5,-28(s0)
    1424:	40f707b3          	sub	a5,a4,a5
    1428:	00078593          	mv	a1,a5
    142c:	00068513          	mv	a0,a3
    1430:	db1fe0ef          	jal	ra,1e0 <writePixel>
    1434:	00000013          	nop
    1438:	01c12083          	lw	ra,28(sp)
    143c:	01812403          	lw	s0,24(sp)
    1440:	02010113          	addi	sp,sp,32
    1444:	00008067          	ret

00001448 <circleBres>:
    1448:	fd010113          	addi	sp,sp,-48
    144c:	02112623          	sw	ra,44(sp)
    1450:	02812423          	sw	s0,40(sp)
    1454:	03010413          	addi	s0,sp,48
    1458:	fca42e23          	sw	a0,-36(s0)
    145c:	fcb42c23          	sw	a1,-40(s0)
    1460:	fcc42a23          	sw	a2,-44(s0)
    1464:	fe042623          	sw	zero,-20(s0)
    1468:	fd442783          	lw	a5,-44(s0)
    146c:	fef42423          	sw	a5,-24(s0)
    1470:	fd442783          	lw	a5,-44(s0)
    1474:	00179793          	slli	a5,a5,0x1
    1478:	00300713          	li	a4,3
    147c:	40f707b3          	sub	a5,a4,a5
    1480:	fef42223          	sw	a5,-28(s0)
    1484:	fe842683          	lw	a3,-24(s0)
    1488:	fec42603          	lw	a2,-20(s0)
    148c:	fd842583          	lw	a1,-40(s0)
    1490:	fdc42503          	lw	a0,-36(s0)
    1494:	e61ff0ef          	jal	ra,12f4 <drawCircle>
    1498:	0740006f          	j	150c <circleBres+0xc4>
    149c:	fec42783          	lw	a5,-20(s0)
    14a0:	00178793          	addi	a5,a5,1
    14a4:	fef42623          	sw	a5,-20(s0)
    14a8:	fe442783          	lw	a5,-28(s0)
    14ac:	02f05a63          	blez	a5,14e0 <circleBres+0x98>
    14b0:	fe842783          	lw	a5,-24(s0)
    14b4:	fff78793          	addi	a5,a5,-1
    14b8:	fef42423          	sw	a5,-24(s0)
    14bc:	fec42703          	lw	a4,-20(s0)
    14c0:	fe842783          	lw	a5,-24(s0)
    14c4:	40f707b3          	sub	a5,a4,a5
    14c8:	00279713          	slli	a4,a5,0x2
    14cc:	fe442783          	lw	a5,-28(s0)
    14d0:	00f707b3          	add	a5,a4,a5
    14d4:	00a78793          	addi	a5,a5,10
    14d8:	fef42223          	sw	a5,-28(s0)
    14dc:	01c0006f          	j	14f8 <circleBres+0xb0>
    14e0:	fec42783          	lw	a5,-20(s0)
    14e4:	00279713          	slli	a4,a5,0x2
    14e8:	fe442783          	lw	a5,-28(s0)
    14ec:	00f707b3          	add	a5,a4,a5
    14f0:	00678793          	addi	a5,a5,6
    14f4:	fef42223          	sw	a5,-28(s0)
    14f8:	fe842683          	lw	a3,-24(s0)
    14fc:	fec42603          	lw	a2,-20(s0)
    1500:	fd842583          	lw	a1,-40(s0)
    1504:	fdc42503          	lw	a0,-36(s0)
    1508:	dedff0ef          	jal	ra,12f4 <drawCircle>
    150c:	fe842703          	lw	a4,-24(s0)
    1510:	fec42783          	lw	a5,-20(s0)
    1514:	f8f754e3          	bge	a4,a5,149c <circleBres+0x54>
    1518:	00000013          	nop
    151c:	00000013          	nop
    1520:	02c12083          	lw	ra,44(sp)
    1524:	02812403          	lw	s0,40(sp)
    1528:	03010113          	addi	sp,sp,48
    152c:	00008067          	ret
